; Function Attrs: nofree norecurse nounwind uwtable
define i64 @PaUtil_WriteRingBuffer(ptr noundef %0, ptr noundef readonly captures(none) %1, i64 noundef %2) local_unnamed_addr #3 {
  %4 = load i64, ptr %0, align 8, !tbaa !3
  %5 = getelementptr inbounds nuw i8, ptr %0, i64 8
  %6 = load volatile i64, ptr %5, align 8, !tbaa !12
  %7 = getelementptr inbounds nuw i8, ptr %0, i64 16
  %8 = load volatile i64, ptr %7, align 8, !tbaa !11
  %9 = sub nsw i64 %6, %8
  %10 = getelementptr inbounds nuw i8, ptr %0, i64 24
  %11 = load i64, ptr %10, align 8, !tbaa !13
  %12 = and i64 %9, %11
  %13 = sub nsw i64 %4, %12
  %spec.select.i = tail call i64 @llvm.smin.i64(i64 %2, i64 %13)
  %14 = load volatile i64, ptr %5, align 8, !tbaa !12
  %15 = getelementptr inbounds nuw i8, ptr %0, i64 32
  %16 = load i64, ptr %15, align 8, !tbaa !14
  %17 = and i64 %16, %14
  %18 = add nsw i64 %17, %spec.select.i
  %19 = icmp sgt i64 %18, %4
  br i1 %19, label %20, label %29

20:                                               ; preds = %3
  %21 = sub nsw i64 %4, %17
  %22 = getelementptr inbounds nuw i8, ptr %0, i64 48
  %23 = load ptr, ptr %22, align 8, !tbaa !10
  %24 = getelementptr inbounds nuw i8, ptr %0, i64 40
  %25 = load i64, ptr %24, align 8, !tbaa !15
  %26 = mul nsw i64 %25, %17
  %27 = getelementptr inbounds i8, ptr %23, i64 %26
  %28 = sub nsw i64 %spec.select.i, %21
  br label %36

29:                                               ; preds = %3
  %30 = getelementptr inbounds nuw i8, ptr %0, i64 48
  %31 = load ptr, ptr %30, align 8, !tbaa !10
  %32 = getelementptr inbounds nuw i8, ptr %0, i64 40
  %33 = load i64, ptr %32, align 8, !tbaa !15
  %34 = mul nsw i64 %33, %17
  %35 = getelementptr inbounds i8, ptr %31, i64 %34
  br label %36

36:                                               ; preds = %29, %20
  %.0 = phi ptr [ %27, %20 ], [ %35, %29 ]
  %spec.select.sink.i = phi i64 [ %21, %20 ], [ %spec.select.i, %29 ]
  %.sink.i = phi ptr [ %23, %20 ], [ null, %29 ]
  %storemerge.i = phi i64 [ %28, %20 ], [ 0, %29 ]
  %.not.i = icmp eq i64 %4, %12
  br i1 %.not.i, label %PaUtil_GetRingBufferWriteRegions.exit, label %37

37:                                               ; preds = %36
  fence seq_cst
  br label %PaUtil_GetRingBufferWriteRegions.exit

PaUtil_GetRingBufferWriteRegions.exit:            ; preds = %36, %37
  %38 = icmp sgt i64 %storemerge.i, 0
  %39 = getelementptr inbounds nuw i8, ptr %0, i64 40
  %40 = load i64, ptr %39, align 8, !tbaa !15
  %41 = mul nsw i64 %40, %spec.select.sink.i
  tail call void @llvm.memcpy.p0.p0.i64(ptr align 1 %.0, ptr align 1 %1, i64 %41, i1 false)
  br i1 %38, label %42, label %47

42:                                               ; preds = %PaUtil_GetRingBufferWriteRegions.exit
  %43 = load i64, ptr %39, align 8, !tbaa !15
  %44 = mul nsw i64 %43, %spec.select.sink.i
  %45 = getelementptr inbounds i8, ptr %1, i64 %44
  %46 = mul nsw i64 %43, %storemerge.i
  tail call void @llvm.memcpy.p0.p0.i64(ptr align 1 %.sink.i, ptr align 1 %45, i64 %46, i1 false)
  br label %47

47:                                               ; preds = %PaUtil_GetRingBufferWriteRegions.exit, %42
  fence seq_cst
  %48 = load volatile i64, ptr %5, align 8, !tbaa !12
  %49 = add nsw i64 %48, %spec.select.i
  %50 = load i64, ptr %10, align 8, !tbaa !13
  %51 = and i64 %49, %50
  store volatile i64 %51, ptr %5, align 8, !tbaa !12
  ret i64 %spec.select.i
}